target datalayout = "e-m:e-p270:32:32-p271:32:32-p272:64:64-i64:64-i128:128-f80:128-n8:16:32:64-S128"
target triple = "x86_64-pc-linux-gnu"

%"class.google::protobuf::io::CodedInputStream" = type { ptr, ptr, ptr, i32, i32, i32, i8, i8, i32, i32, i32, i32, i32, ptr, ptr }

; Function Attrs: inlinehint mustprogress nounwind uwtable
define linkonce_odr hidden void @_ZN6google8protobuf2io16CodedInputStream7AdvanceEi(ptr noundef nonnull align 8 dereferenceable(80) %0, i32 noundef %1) #7 comdat align 2 {
  %3 = alloca ptr, align 8
  %4 = alloca i32, align 4
  store ptr %0, ptr %3, align 8, !tbaa !8
  store i32 %1, ptr %4, align 4, !tbaa !10
  %5 = load ptr, ptr %3, align 8
  %6 = load i32, ptr %4, align 4, !tbaa !10
  %7 = getelementptr inbounds nuw %"class.google::protobuf::io::CodedInputStream", ptr %5, i32 0, i32 0
  %8 = load ptr, ptr %7, align 8, !tbaa !18
  %9 = sext i32 %6 to i64
  %10 = getelementptr inbounds i8, ptr %8, i64 %9
  store ptr %10, ptr %7, align 8, !tbaa !18
  ret void
}

; Function Attrs: alwaysinline mustprogress uwtable
define linkonce_odr hidden noundef i32 @_ZN6google8protobuf2io16CodedInputStream16ReadTagNoLastTagEv(ptr noundef nonnull align 8 dereferenceable(80) %0) #8 comdat align 2 {
  %2 = alloca i32, align 4
  %3 = alloca ptr, align 8
  %4 = alloca i32, align 4
  %5 = alloca i32, align 4
  store ptr %0, ptr %3, align 8, !tbaa !8
  %6 = load ptr, ptr %3, align 8
  call void @llvm.lifetime.start.p0(i64 4, ptr %4) #3
  store i32 0, ptr %4, align 4, !tbaa !10
  %7 = getelementptr inbounds nuw %"class.google::protobuf::io::CodedInputStream", ptr %6, i32 0, i32 0
  %8 = load ptr, ptr %7, align 8, !tbaa !18
  %9 = getelementptr inbounds nuw %"class.google::protobuf::io::CodedInputStream", ptr %6, i32 0, i32 1
  %10 = load ptr, ptr %9, align 8, !tbaa !25
  %11 = icmp ult ptr %8, %10
  %12 = zext i1 %11 to i64
  %13 = call i64 @llvm.expect.i64(i64 %12, i64 1)
  %14 = icmp ne i64 %13, 0
  br i1 %14, label %15, label %25

15:                                               ; preds = %1
  %16 = getelementptr inbounds nuw %"class.google::protobuf::io::CodedInputStream", ptr %6, i32 0, i32 0
  %17 = load ptr, ptr %16, align 8, !tbaa !18
  %18 = load i8, ptr %17, align 1, !tbaa !26
  %19 = zext i8 %18 to i32
  store i32 %19, ptr %4, align 4, !tbaa !10
  %20 = load i32, ptr %4, align 4, !tbaa !10
  %21 = icmp ult i32 %20, 128
  br i1 %21, label %22, label %24

22:                                               ; preds = %15
  call void @_ZN6google8protobuf2io16CodedInputStream7AdvanceEi(ptr noundef nonnull align 8 dereferenceable(80) %6, i32 noundef 1)
  %23 = load i32, ptr %4, align 4, !tbaa !10
  store i32 %23, ptr %2, align 4
  store i32 1, ptr %5, align 4
  br label %29

24:                                               ; preds = %15
  br label %25

25:                                               ; preds = %24, %1
  %26 = load i32, ptr %4, align 4, !tbaa !10
  %27 = call noundef i32 @_ZN6google8protobuf2io16CodedInputStream15ReadTagFallbackEj(ptr noundef nonnull align 8 dereferenceable(80) %6, i32 noundef %26)
  store i32 %27, ptr %4, align 4, !tbaa !10
  %28 = load i32, ptr %4, align 4, !tbaa !10
  store i32 %28, ptr %2, align 4
  store i32 1, ptr %5, align 4
  br label %29

29:                                               ; preds = %25, %22
  call void @llvm.lifetime.end.p0(i64 4, ptr %4) #3
  %30 = load i32, ptr %2, align 4
  ret i32 %30
}

; Function Attrs: alwaysinline mustprogress uwtable
define linkonce_odr hidden noundef i32 @_ZN6google8protobuf2io16CodedInputStream7ReadTagEv(ptr noundef nonnull align 8 dereferenceable(80) %0) #8 comdat align 2 {
  %2 = alloca ptr, align 8
  store ptr %0, ptr %2, align 8, !tbaa !8
  %3 = load ptr, ptr %2, align 8
  %4 = call noundef i32 @_ZN6google8protobuf2io16CodedInputStream16ReadTagNoLastTagEv(ptr noundef nonnull align 8 dereferenceable(80) %3)
  %5 = getelementptr inbounds nuw %"class.google::protobuf::io::CodedInputStream", ptr %3, i32 0, i32 5
  store i32 %4, ptr %5, align 8, !tbaa !199
  ret i32 %4
}

; Function Attrs: mustprogress uwtable
define hidden noundef zeroext i1 @_ZN6google8protobuf8internal12ExtensionSet15ParseMessageSetEPNS0_2io16CodedInputStreamEPNS1_15ExtensionFinderEPNS1_22MessageSetFieldSkipperE(ptr noundef nonnull align 8 dereferenceable(24) %0, ptr noundef %1, ptr noundef %2, ptr noundef %3) #4 align 2 {
  %5 = alloca i1, align 1
  %6 = alloca ptr, align 8
  %7 = alloca ptr, align 8
  %8 = alloca ptr, align 8
  %9 = alloca ptr, align 8
  %10 = alloca i32, align 4
  %11 = alloca i32, align 4
  store ptr %0, ptr %6, align 8, !tbaa !29
  store ptr %1, ptr %7, align 8, !tbaa !8
  store ptr %2, ptr %8, align 8, !tbaa !148
  store ptr %3, ptr %9, align 8, !tbaa !3
  %12 = load ptr, ptr %6, align 8
  br label %13

13:                                               ; preds = %4, %36
  call void @llvm.lifetime.start.p0(i64 4, ptr %10) #3
  %14 = load ptr, ptr %7, align 8, !tbaa !8
  %15 = call noundef i32 @_ZN6google8protobuf2io16CodedInputStream7ReadTagEv(ptr noundef nonnull align 8 dereferenceable(80) %14)
  store i32 %15, ptr %10, align 4, !tbaa !10
  %16 = load i32, ptr %10, align 4, !tbaa !10
  switch i32 %16, label %25 [
    i32 0, label %17
    i32 11, label %18
  ]

17:                                               ; preds = %13
  store i1 true, ptr %5, align 1
  store i32 1, ptr %11, align 4
  br label %34

18:                                               ; preds = %13
  %19 = load ptr, ptr %7, align 8, !tbaa !8
  %20 = load ptr, ptr %8, align 8, !tbaa !148
  %21 = load ptr, ptr %9, align 8, !tbaa !3
  %22 = call noundef zeroext i1 @_ZN6google8protobuf8internal12ExtensionSet19ParseMessageSetItemEPNS0_2io16CodedInputStreamEPNS1_15ExtensionFinderEPNS1_22MessageSetFieldSkipperE(ptr noundef nonnull align 8 dereferenceable(24) %12, ptr noundef %19, ptr noundef %20, ptr noundef %21)
  br i1 %22, label %24, label %23

23:                                               ; preds = %18
  store i1 false, ptr %5, align 1
  store i32 1, ptr %11, align 4
  br label %34

24:                                               ; preds = %18
  br label %33

25:                                               ; preds = %13
  %26 = load i32, ptr %10, align 4, !tbaa !10
  %27 = load ptr, ptr %7, align 8, !tbaa !8
  %28 = load ptr, ptr %8, align 8, !tbaa !148
  %29 = load ptr, ptr %9, align 8, !tbaa !3
  %30 = call noundef zeroext i1 @_ZN6google8protobuf8internal12ExtensionSet10ParseFieldEjPNS0_2io16CodedInputStreamEPNS1_15ExtensionFinderEPNS1_12FieldSkipperE(ptr noundef nonnull align 8 dereferenceable(24) %12, i32 noundef %26, ptr noundef %27, ptr noundef %28, ptr noundef %29)
  br i1 %30, label %32, label %31

31:                                               ; preds = %25
  store i1 false, ptr %5, align 1
  store i32 1, ptr %11, align 4
  br label %34

32:                                               ; preds = %25
  br label %33

33:                                               ; preds = %32, %24
  store i32 0, ptr %11, align 4
  br label %34

34:                                               ; preds = %33, %31, %23, %17
  call void @llvm.lifetime.end.p0(i64 4, ptr %10) #3
  %35 = load i32, ptr %11, align 4
  switch i32 %35, label %39 [
    i32 0, label %36
    i32 1, label %37
  ]

36:                                               ; preds = %34
  br label %13, !llvm.loop !150

37:                                               ; preds = %34
  %38 = load i1, ptr %5, align 1
  ret i1 %38

39:                                               ; preds = %34
  unreachable
}