; Function Attrs: mustprogress uwtable
define hidden noundef zeroext i1 @_ZN6google8protobuf8internal12ExtensionSet15ParseMessageSetEPNS0_2io16CodedInputStreamEPNS1_15ExtensionFinderEPNS1_22MessageSetFieldSkipperE(ptr noundef nonnull align 8 dereferenceable(24) %0, ptr noundef %1, ptr noundef %2, ptr noundef %3) local_unnamed_addr #3 align 2 {
  %5 = getelementptr inbounds nuw i8, ptr %1, i64 8
  %6 = getelementptr inbounds nuw i8, ptr %1, i64 32
  br label %7

7:                                                ; preds = %.backedge, %4
  %8 = load ptr, ptr %1, align 8, !tbaa !3
  %9 = load ptr, ptr %5, align 8, !tbaa !14
  %10 = icmp ult ptr %8, %9
  br i1 %10, label %11, label %17, !prof !15

11:                                               ; preds = %7
  %12 = load i8, ptr %8, align 1, !tbaa !16
  %13 = zext i8 %12 to i32
  %14 = icmp sgt i8 %12, -1
  br i1 %14, label %15, label %17

15:                                               ; preds = %11
  %16 = getelementptr inbounds nuw i8, ptr %8, i64 1
  store ptr %16, ptr %1, align 8, !tbaa !3
  br label %_ZN6google8protobuf2io16CodedInputStream16ReadTagNoLastTagEv.exit

17:                                               ; preds = %11, %7
  %.0.i = phi i32 [ %13, %11 ], [ 0, %7 ]
  %18 = tail call noundef i32 @_ZN6google8protobuf2io16CodedInputStream15ReadTagFallbackEj(ptr noundef nonnull align 8 dereferenceable(80) %1, i32 noundef %.0.i)
  br label %_ZN6google8protobuf2io16CodedInputStream16ReadTagNoLastTagEv.exit

_ZN6google8protobuf2io16CodedInputStream16ReadTagNoLastTagEv.exit: ; preds = %15, %17
  %.05.i = phi i32 [ %13, %15 ], [ %18, %17 ]
  store i32 %.05.i, ptr %6, align 8, !tbaa !148
  switch i32 %.05.i, label %21 [
    i32 0, label %23
    i32 11, label %19
  ]

19:                                               ; preds = %_ZN6google8protobuf2io16CodedInputStream16ReadTagNoLastTagEv.exit
  %20 = tail call noundef zeroext i1 @_ZN6google8protobuf8internal12ExtensionSet19ParseMessageSetItemEPNS0_2io16CodedInputStreamEPNS1_15ExtensionFinderEPNS1_22MessageSetFieldSkipperE(ptr noundef nonnull align 8 dereferenceable(24) %0, ptr noundef nonnull %1, ptr noundef %2, ptr noundef %3)
  br i1 %20, label %.backedge, label %23

.backedge:                                        ; preds = %19, %21
  br label %7

21:                                               ; preds = %_ZN6google8protobuf2io16CodedInputStream16ReadTagNoLastTagEv.exit
  %22 = tail call noundef zeroext i1 @_ZN6google8protobuf8internal12ExtensionSet10ParseFieldEjPNS0_2io16CodedInputStreamEPNS1_15ExtensionFinderEPNS1_12FieldSkipperE(ptr noundef nonnull align 8 dereferenceable(24) %0, i32 noundef %.05.i, ptr noundef nonnull %1, ptr noundef %2, ptr noundef %3)
  br i1 %22, label %.backedge, label %23

23:                                               ; preds = %_ZN6google8protobuf2io16CodedInputStream16ReadTagNoLastTagEv.exit, %19, %21
  %.1.ph = phi i1 [ false, %21 ], [ false, %19 ], [ true, %_ZN6google8protobuf2io16CodedInputStream16ReadTagNoLastTagEv.exit ]
  ret i1 %.1.ph
}